; Function Attrs: mustprogress uwtable
define noundef ptr @_ZNK6icu_7725ScientificNumberFormatter11MarkupStyle5cloneEv(ptr noundef nonnull align 8 dereferenceable(136) %0) unnamed_addr #0 align 2 personality ptr @__gxx_personality_v0 {
  %2 = tail call noundef ptr @_ZN6icu_777UMemorynwEm(i64 noundef 136) #7
  %3 = icmp eq ptr %2, null
  br i1 %3, label %_ZN6icu_7725ScientificNumberFormatter11MarkupStyleC2ERKS1_.exit, label %4

4:                                                ; preds = %1
  store ptr getelementptr inbounds nuw inrange(-16, 40) (i8, ptr @_ZTVN6icu_7725ScientificNumberFormatter11MarkupStyleE, i64 16), ptr %2, align 8, !tbaa !3
  %5 = getelementptr inbounds nuw i8, ptr %2, i64 8
  %6 = getelementptr inbounds nuw i8, ptr %0, i64 8
  invoke void @_ZN6icu_7713UnicodeStringC1ERKS0_(ptr noundef nonnull align 8 dereferenceable(64) %5, ptr noundef nonnull align 8 dereferenceable(64) %6)
          to label %7 unwind label %10

7:                                                ; preds = %4
  %8 = getelementptr inbounds nuw i8, ptr %2, i64 72
  %9 = getelementptr inbounds nuw i8, ptr %0, i64 72
  invoke void @_ZN6icu_7713UnicodeStringC1ERKS0_(ptr noundef nonnull align 8 dereferenceable(64) %8, ptr noundef nonnull align 8 dereferenceable(64) %9)
          to label %_ZN6icu_7725ScientificNumberFormatter11MarkupStyleC2ERKS1_.exit unwind label %12

10:                                               ; preds = %4
  %11 = landingpad { ptr, i32 }
          cleanup
  br label %.body

12:                                               ; preds = %7
  %13 = landingpad { ptr, i32 }
          cleanup
  tail call void @_ZN6icu_7713UnicodeStringD1Ev(ptr noundef nonnull align 8 dereferenceable(64) %5) #7
  br label %.body

.body:                                            ; preds = %12, %10
  %.pn.i = phi { ptr, i32 } [ %13, %12 ], [ %11, %10 ]
  tail call void @_ZN6icu_777UObjectD2Ev(ptr noundef nonnull align 8 dereferenceable(136) %2) #7
  tail call void @_ZN6icu_777UMemorydlEPv(ptr noundef nonnull %2) #7
  resume { ptr, i32 } %.pn.i

_ZN6icu_7725ScientificNumberFormatter11MarkupStyleC2ERKS1_.exit: ; preds = %7, %1
  ret ptr %2
}